; Function Attrs: mustprogress nounwind uwtable
define dso_local void @_ZN4llvm19MachineRegisterInfo7setTypeENS_8RegisterENS_3LLTE(ptr noundef nonnull align 8 dereferenceable(512) %0, i32 %1, i64 %2) local_unnamed_addr #0 align 2 {
  %4 = getelementptr inbounds nuw i8, ptr %0, i64 456
  %5 = and i32 %1, 2147483647
  %6 = add nuw i32 %5, 1
  %7 = zext i32 %6 to i64
  %8 = tail call noundef i64 @_ZNK4llvm15SmallVectorBaseIjE4sizeEv(ptr noundef nonnull align 8 dereferenceable(25) %4) #20
  %9 = icmp ult i64 %8, %7
  br i1 %9, label %10, label %_ZN4llvm10IndexedMapINS_3LLTENS_20VirtReg2IndexFunctorEE4growENS_8RegisterE.exit

10:                                               ; preds = %3
  %11 = getelementptr inbounds nuw i8, ptr %0, i64 472
  %.sroa.0.0.copyload.i.i = load i64, ptr %11, align 8
  tail call void @_ZN4llvm15SmallVectorImplINS_3LLTEE6resizeEmS1_(ptr noundef nonnull align 8 dereferenceable(25) %4, i64 noundef %7, i64 %.sroa.0.0.copyload.i.i)
  br label %_ZN4llvm10IndexedMapINS_3LLTENS_20VirtReg2IndexFunctorEE4growENS_8RegisterE.exit

_ZN4llvm10IndexedMapINS_3LLTENS_20VirtReg2IndexFunctorEE4growENS_8RegisterE.exit: ; preds = %3, %10
  %12 = zext nneg i32 %5 to i64
  %13 = load ptr, ptr %4, align 8
  %14 = getelementptr inbounds nuw %"class.llvm::LLT", ptr %13, i64 %12
  store i64 %2, ptr %14, align 8
  ret void
}